target datalayout = "e-m:e-p270:32:32-p271:32:32-p272:64:64-i64:64-i128:128-f80:128-n8:16:32:64-S128"
target triple = "x86_64-pc-linux-gnu"

@hf_gsm_a_dtap_mm_timer_unit = internal global i32 0, align 4
@hf_gsm_a_dtap_mm_timer_value = internal global i32 0, align 4
@hf_gsm_a_dtap_mm_timer = internal global i32 0, align 4
@ett_mm_timer = internal global i32 0, align 4
@.str.822 = private unnamed_addr constant [4 x i8] c"sec\00", align 1
@.str.823 = private unnamed_addr constant [4 x i8] c"min\00", align 1
@.str.824 = private unnamed_addr constant [1 x i8] zeroinitializer, align 1
@.str.825 = private unnamed_addr constant [21 x i8] c"timer is deactivated\00", align 1
@.str.826 = private unnamed_addr constant [6 x i8] c"%u %s\00", align 1

; Function Attrs: null_pointer_is_valid sspstrong uwtable
define internal zeroext i16 @de_mm_timer(ptr noundef %0, ptr noundef %1, ptr noundef %2, i32 noundef %3, i32 noundef %4, ptr noundef %5, i32 noundef %6) #1 {
  %8 = alloca ptr, align 8
  %9 = alloca ptr, align 8
  %10 = alloca ptr, align 8
  %11 = alloca i32, align 4
  %12 = alloca i32, align 4
  %13 = alloca ptr, align 8
  %14 = alloca i32, align 4
  %15 = alloca i8, align 1
  %16 = alloca i16, align 2
  %17 = alloca ptr, align 8
  %18 = alloca ptr, align 8
  %19 = alloca ptr, align 8
  store ptr %0, ptr %8, align 8
  store ptr %1, ptr %9, align 8
  store ptr %2, ptr %10, align 8
  store i32 %3, ptr %11, align 4
  store i32 %4, ptr %12, align 4
  store ptr %5, ptr %13, align 8
  store i32 %6, ptr %14, align 4
  call void @llvm.lifetime.start.p0(i64 1, ptr %15) #7
  call void @llvm.lifetime.start.p0(i64 2, ptr %16) #7
  call void @llvm.lifetime.start.p0(i64 8, ptr %17) #7
  call void @llvm.lifetime.start.p0(i64 8, ptr %18) #7
  call void @llvm.lifetime.start.p0(i64 8, ptr %19) #7
  store ptr null, ptr %19, align 8
  %20 = load ptr, ptr %8, align 8
  %21 = load i32, ptr %11, align 4
  %22 = call zeroext i8 @tvb_get_uint8(ptr noundef %20, i32 noundef %21)
  store i8 %22, ptr %15, align 1
  %23 = load i8, ptr %15, align 1
  %24 = zext i8 %23 to i32
  %25 = and i32 %24, 31
  %26 = trunc i32 %25 to i16
  store i16 %26, ptr %16, align 2
  %27 = load i8, ptr %15, align 1
  %28 = zext i8 %27 to i32
  %29 = ashr i32 %28, 5
  switch i32 %29, label %49 [
    i32 0, label %30
    i32 1, label %35
    i32 2, label %36
    i32 7, label %41
  ]

30:                                               ; preds = %7
  store ptr @.str.822, ptr %17, align 8
  %31 = load i16, ptr %16, align 2
  %32 = zext i16 %31 to i32
  %33 = mul i32 %32, 2
  %34 = trunc i32 %33 to i16
  store i16 %34, ptr %16, align 2
  br label %50

35:                                               ; preds = %7
  store ptr @.str.823, ptr %17, align 8
  br label %50

36:                                               ; preds = %7
  store ptr @.str.823, ptr %17, align 8
  %37 = load i16, ptr %16, align 2
  %38 = zext i16 %37 to i32
  %39 = mul i32 %38, 6
  %40 = trunc i32 %39 to i16
  store i16 %40, ptr %16, align 2
  br label %50

41:                                               ; preds = %7
  store ptr @.str.824, ptr %17, align 8
  %42 = load ptr, ptr %9, align 8
  %43 = load i32, ptr @hf_gsm_a_dtap_mm_timer, align 4
  %44 = load ptr, ptr %8, align 8
  %45 = load i32, ptr %11, align 4
  %46 = load i8, ptr %15, align 1
  %47 = zext i8 %46 to i32
  %48 = call ptr (ptr, i32, ptr, i32, i32, i32, ptr, ...) @proto_tree_add_uint_format_value(ptr noundef %42, i32 noundef %43, ptr noundef %44, i32 noundef %45, i32 noundef 1, i32 noundef %47, ptr noundef @.str.825)
  store ptr %48, ptr %19, align 8
  br label %50

49:                                               ; preds = %7
  store ptr @.str.823, ptr %17, align 8
  br label %50

50:                                               ; preds = %49, %41, %36, %35, %30
  %51 = load ptr, ptr %19, align 8
  %52 = icmp eq ptr %51, null
  br i1 %52, label %53, label %64

53:                                               ; preds = %50
  %54 = load ptr, ptr %9, align 8
  %55 = load i32, ptr @hf_gsm_a_dtap_mm_timer, align 4
  %56 = load ptr, ptr %8, align 8
  %57 = load i32, ptr %11, align 4
  %58 = load i16, ptr %16, align 2
  %59 = zext i16 %58 to i32
  %60 = load i16, ptr %16, align 2
  %61 = zext i16 %60 to i32
  %62 = load ptr, ptr %17, align 8
  %63 = call ptr (ptr, i32, ptr, i32, i32, i32, ptr, ...) @proto_tree_add_uint_format_value(ptr noundef %54, i32 noundef %55, ptr noundef %56, i32 noundef %57, i32 noundef 1, i32 noundef %59, ptr noundef @.str.826, i32 noundef %61, ptr noundef %62)
  store ptr %63, ptr %19, align 8
  br label %64

64:                                               ; preds = %53, %50
  %65 = load ptr, ptr %19, align 8
  %66 = load i32, ptr @ett_mm_timer, align 4
  %67 = call ptr @proto_item_add_subtree(ptr noundef %65, i32 noundef %66)
  store ptr %67, ptr %18, align 8
  %68 = load ptr, ptr %18, align 8
  %69 = load i32, ptr @hf_gsm_a_dtap_mm_timer_unit, align 4
  %70 = load ptr, ptr %8, align 8
  %71 = load i32, ptr %11, align 4
  %72 = call ptr @proto_tree_add_item(ptr noundef %68, i32 noundef %69, ptr noundef %70, i32 noundef %71, i32 noundef 1, i32 noundef 0)
  %73 = load ptr, ptr %18, align 8
  %74 = load i32, ptr @hf_gsm_a_dtap_mm_timer_value, align 4
  %75 = load ptr, ptr %8, align 8
  %76 = load i32, ptr %11, align 4
  %77 = call ptr @proto_tree_add_item(ptr noundef %73, i32 noundef %74, ptr noundef %75, i32 noundef %76, i32 noundef 1, i32 noundef 0)
  call void @llvm.lifetime.end.p0(i64 8, ptr %19) #7
  call void @llvm.lifetime.end.p0(i64 8, ptr %18) #7
  call void @llvm.lifetime.end.p0(i64 8, ptr %17) #7
  call void @llvm.lifetime.end.p0(i64 2, ptr %16) #7
  call void @llvm.lifetime.end.p0(i64 1, ptr %15) #7
  ret i16 1
}