; Function Attrs: null_pointer_is_valid sspstrong uwtable
define internal noundef zeroext i16 @de_mm_timer(ptr noundef %0, ptr noundef %1, ptr readnone captures(none) %2, i32 noundef %3, i32 %4, ptr readnone captures(none) %5, i32 %6) #1 {
  %8 = tail call zeroext i8 @tvb_get_uint8(ptr noundef %0, i32 noundef %3)
  %9 = zext i8 %8 to i32
  %10 = and i8 %8, 31
  %11 = lshr i32 %9, 5
  switch i32 %11, label %.thread [
    i32 0, label %12
    i32 7, label %15
    i32 2, label %14
  ]

12:                                               ; preds = %7
  %13 = shl nuw nsw i8 %10, 1
  br label %.thread

14:                                               ; preds = %7
  %narrow = mul nuw i8 %10, 6
  br label %.thread

15:                                               ; preds = %7
  %16 = load i32, ptr @hf_gsm_a_dtap_mm_timer, align 4
  %17 = tail call ptr (ptr, i32, ptr, i32, i32, i32, ptr, ...) @proto_tree_add_uint_format_value(ptr noundef %1, i32 noundef %16, ptr noundef %0, i32 noundef %3, i32 noundef 1, i32 noundef %9, ptr noundef nonnull @.str.825)
  %18 = icmp eq ptr %17, null
  br i1 %18, label %.thread, label %22

.thread:                                          ; preds = %7, %12, %14, %15
  %.023.in29 = phi i8 [ %10, %15 ], [ %10, %7 ], [ %13, %12 ], [ %narrow, %14 ]
  %.02428 = phi ptr [ @.str.824, %15 ], [ @.str.823, %7 ], [ @.str.822, %12 ], [ @.str.823, %14 ]
  %19 = load i32, ptr @hf_gsm_a_dtap_mm_timer, align 4
  %20 = zext i8 %.023.in29 to i32
  %21 = tail call ptr (ptr, i32, ptr, i32, i32, i32, ptr, ...) @proto_tree_add_uint_format_value(ptr noundef %1, i32 noundef %19, ptr noundef %0, i32 noundef %3, i32 noundef 1, i32 noundef %20, ptr noundef nonnull @.str.826, i32 noundef %20, ptr noundef nonnull %.02428)
  br label %22

22:                                               ; preds = %.thread, %15
  %.1 = phi ptr [ %21, %.thread ], [ %17, %15 ]
  %23 = load i32, ptr @ett_mm_timer, align 4
  %24 = tail call ptr @proto_item_add_subtree(ptr noundef %.1, i32 noundef %23)
  %25 = load i32, ptr @hf_gsm_a_dtap_mm_timer_unit, align 4
  %26 = tail call ptr @proto_tree_add_item(ptr noundef %24, i32 noundef %25, ptr noundef %0, i32 noundef %3, i32 noundef 1, i32 noundef 0)
  %27 = load i32, ptr @hf_gsm_a_dtap_mm_timer_value, align 4
  %28 = tail call ptr @proto_tree_add_item(ptr noundef %24, i32 noundef %27, ptr noundef %0, i32 noundef %3, i32 noundef 1, i32 noundef 0)
  ret i16 1
}